target datalayout = "e-m:e-p270:32:32-p271:32:32-p272:64:64-i64:64-i128:128-f80:128-n8:16:32:64-S128"
target triple = "x86_64-unknown-linux-gnu"

%struct.intel_gt_debugfs_file = type { ptr, ptr, ptr }
%struct.file_operations = type { ptr, ptr, ptr, ptr, ptr, ptr, ptr, ptr, ptr, ptr, ptr, ptr, i64, ptr, ptr, ptr, ptr, ptr, ptr, ptr, ptr, ptr, ptr, ptr, ptr, ptr, ptr, ptr, ptr, ptr, ptr, ptr, ptr }
%struct.drm_printer = type { ptr, ptr, ptr, ptr }

@intel_huc_debugfs_register.files = internal constant [1 x %struct.intel_gt_debugfs_file] [%struct.intel_gt_debugfs_file { ptr @.str, ptr @huc_info_fops, ptr null }], align 16
@.str = private unnamed_addr constant [9 x i8] c"huc_info\00", align 1
@huc_info_fops = internal constant %struct.file_operations { ptr null, ptr @seq_lseek, ptr @seq_read, ptr null, ptr null, ptr null, ptr null, ptr null, ptr null, ptr null, ptr null, ptr null, i64 0, ptr @huc_info_open, ptr null, ptr @single_release, ptr null, ptr null, ptr null, ptr null, ptr null, ptr null, ptr null, ptr null, ptr null, ptr null, ptr null, ptr null, ptr null, ptr null, ptr null, ptr null, ptr null }, align 8

; Function Attrs: fn_ret_thunk_extern nounwind null_pointer_is_valid
define dso_local void @intel_huc_debugfs_register(ptr noundef %0, ptr noundef %1) local_unnamed_addr #0 align 16 {
  %3 = getelementptr inbounds i8, ptr %0, i64 4
  %4 = load i32, ptr %3, align 4
  %5 = icmp eq i32 %4, -1
  br i1 %5, label %7, label %6

6:                                                ; preds = %2
  tail call void @intel_gt_debugfs_register_files(ptr noundef %1, ptr noundef nonnull @intel_huc_debugfs_register.files, i64 noundef 1, ptr noundef %0) #4
  br label %7

7:                                                ; preds = %6, %2
  ret void
}

; Function Attrs: null_pointer_is_valid
declare dso_local void @intel_gt_debugfs_register_files(ptr noundef, ptr noundef, i64 noundef, ptr noundef) local_unnamed_addr #1

; Function Attrs: null_pointer_is_valid
declare dso_local i64 @seq_lseek(ptr noundef, i64 noundef, i32 noundef) #1

; Function Attrs: null_pointer_is_valid
declare dso_local i64 @seq_read(ptr noundef, ptr noundef, i64 noundef, ptr noundef) #1

; Function Attrs: fn_ret_thunk_extern nounwind null_pointer_is_valid
define internal i32 @huc_info_open(ptr nocapture noundef readonly %0, ptr noundef %1) #0 align 16 {
  %3 = getelementptr inbounds i8, ptr %0, i64 592
  %4 = load ptr, ptr %3, align 8
  %5 = tail call i32 @single_open(ptr noundef %1, ptr noundef nonnull @huc_info_show, ptr noundef %4) #4
  ret i32 %5
}

; Function Attrs: null_pointer_is_valid
declare dso_local i32 @single_release(ptr noundef, ptr noundef) #1

; Function Attrs: null_pointer_is_valid
declare dso_local i32 @single_open(ptr noundef, ptr noundef, ptr noundef) local_unnamed_addr #1

; Function Attrs: fn_ret_thunk_extern nounwind null_pointer_is_valid
define internal noundef i32 @huc_info_show(ptr noundef %0, ptr nocapture readnone %1) #0 align 16 {
  %3 = alloca %struct.drm_printer, align 8
  %4 = getelementptr inbounds i8, ptr %0, i64 112
  %5 = load ptr, ptr %4, align 8
  call void @llvm.lifetime.start.p0(i64 32, ptr nonnull %3) #4
  call void @llvm.memset.p0.i64(ptr noundef nonnull align 8 dereferenceable(32) %3, i8 0, i64 32, i1 false)
  store ptr @__drm_printfn_seq_file, ptr %3, align 8, !alias.scope !5
  %6 = getelementptr inbounds i8, ptr %3, i64 8
  store ptr @__drm_puts_seq_file, ptr %6, align 8, !alias.scope !5
  %7 = getelementptr inbounds i8, ptr %3, i64 16
  store ptr %0, ptr %7, align 8, !alias.scope !5
  %8 = getelementptr inbounds i8, ptr %3, i64 24
  store ptr null, ptr %8, align 8, !alias.scope !5
  %9 = getelementptr inbounds i8, ptr %5, i64 4
  %10 = load i32, ptr %9, align 4
  %11 = icmp eq i32 %10, -1
  br i1 %11, label %13, label %12

12:                                               ; preds = %2
  call void @intel_huc_load_status(ptr noundef %5, ptr noundef nonnull %3) #4
  br label %13

13:                                               ; preds = %12, %2
  %14 = phi i32 [ 0, %12 ], [ -19, %2 ]
  call void @llvm.lifetime.end.p0(i64 32, ptr nonnull %3) #4
  ret i32 %14
}

; Function Attrs: nocallback nofree nosync nounwind willreturn memory(argmem: readwrite)
declare void @llvm.lifetime.start.p0(i64 immarg, ptr nocapture) #2

; Function Attrs: nocallback nofree nounwind willreturn memory(argmem: write)
declare void @llvm.memset.p0.i64(ptr nocapture writeonly, i8, i64, i1 immarg) #3

; Function Attrs: null_pointer_is_valid
declare dso_local void @intel_huc_load_status(ptr noundef, ptr noundef) local_unnamed_addr #1

; Function Attrs: nocallback nofree nosync nounwind willreturn memory(argmem: readwrite)
declare void @llvm.lifetime.end.p0(i64 immarg, ptr nocapture) #2

; Function Attrs: null_pointer_is_valid
declare dso_local void @__drm_printfn_seq_file(ptr noundef, ptr noundef) #1

; Function Attrs: null_pointer_is_valid
declare dso_local void @__drm_puts_seq_file(ptr noundef, ptr noundef) #1


!llvm.module.flags = !{!0, !1, !2, !3, !4}

!0 = !{i32 1, !"wchar_size", i32 2}
!1 = !{i32 8, !"cf-protection-branch", i32 1}
!2 = !{i32 4, !"function_return_thunk_extern", i32 1}
!3 = !{i32 4, !"indirect_branch_cs_prefix", i32 1}
!4 = !{i32 4, !"SkipRaxSetup", i32 1}
!5 = !{!6}
!6 = distinct !{!6, !7, !"drm_seq_file_printer: argument 0"}
!7 = distinct !{!7, !"drm_seq_file_printer"}
